target datalayout = "e-m:e-p270:32:32-p271:32:32-p272:64:64-i64:64-i128:128-f80:128-n8:16:32:64-S128"
target triple = "x86_64-pc-linux-gnu"

%struct._asn1_ctx_t = type { i32, i32, i8, ptr, ptr, ptr, ptr, ptr, %struct.anon, %struct.anon.2, %struct.anon.3, ptr }
%struct.anon = type { i32, i8, i8, i8, ptr, ptr, i32, i32, ptr, ptr, ptr, %union.anon }
%union.anon = type { %struct.anon.0 }
%struct.anon.0 = type { ptr }
%struct.anon.2 = type { ptr, ptr, ptr }
%struct.anon.3 = type { i32, i8, ptr, i32, i32, ptr, ptr, ptr, %union.anon.4 }
%union.anon.4 = type { %struct.anon.5 }
%struct.anon.5 = type { ptr }
%struct.mms_actx_private_data_t = type { i32, i32, i32, i32, i32, i16, ptr, i32, i32, i32, ptr, ptr, i32 }
%struct.nstime_t = type { i64, i32 }
%struct._mms_transaction_t = type { i32, i32, %struct.nstime_t, i32, i32 }

@hf_mms_iec61850_seqnum = internal global i32 0, align 4
@hf_mms_iec61850_confrev = internal global i32 0, align 4
@hf_mms_iec61850_ctlNum = internal global i32 0, align 4

; Function Attrs: null_pointer_is_valid sspstrong uwtable
define internal i32 @dissect_mms_T_unsigned(i1 noundef zeroext %0, ptr noundef %1, i32 noundef %2, ptr noundef %3, ptr noundef %4, i32 noundef %5) #0 {
  %7 = alloca i8, align 1
  %8 = alloca ptr, align 8
  %9 = alloca i32, align 4
  %10 = alloca ptr, align 8
  %11 = alloca ptr, align 8
  %12 = alloca i32, align 4
  %13 = alloca ptr, align 8
  %14 = zext i1 %0 to i8
  store i8 %14, ptr %7, align 1
  store ptr %1, ptr %8, align 8
  store i32 %2, ptr %9, align 4
  store ptr %3, ptr %10, align 8
  store ptr %4, ptr %11, align 8
  store i32 %5, ptr %12, align 4
  call void @llvm.lifetime.start.p0(i64 8, ptr %13) #8
  %15 = load ptr, ptr %10, align 8
  %16 = getelementptr inbounds nuw %struct._asn1_ctx_t, ptr %15, i32 0, i32 7
  %17 = load ptr, ptr %16, align 8
  store ptr %17, ptr %13, align 8
  %18 = load ptr, ptr %13, align 8
  %19 = icmp ne ptr %18, null
  br i1 %19, label %20, label %62

20:                                               ; preds = %6
  %21 = load ptr, ptr %13, align 8
  %22 = getelementptr inbounds nuw %struct.mms_actx_private_data_t, ptr %21, i32 0, i32 10
  %23 = load ptr, ptr %22, align 8
  %24 = icmp ne ptr %23, null
  br i1 %24, label %25, label %62

25:                                               ; preds = %20
  %26 = load ptr, ptr %13, align 8
  %27 = getelementptr inbounds nuw %struct.mms_actx_private_data_t, ptr %26, i32 0, i32 2
  %28 = load i32, ptr %27, align 8
  %29 = icmp eq i32 %28, 1
  br i1 %29, label %30, label %46

30:                                               ; preds = %25
  %31 = load ptr, ptr %13, align 8
  %32 = getelementptr inbounds nuw %struct.mms_actx_private_data_t, ptr %31, i32 0, i32 3
  %33 = load i32, ptr %32, align 4
  %34 = icmp eq i32 %33, 3
  br i1 %34, label %35, label %37

35:                                               ; preds = %30
  %36 = load i32, ptr @hf_mms_iec61850_seqnum, align 4
  store i32 %36, ptr %12, align 4
  br label %45

37:                                               ; preds = %30
  %38 = load ptr, ptr %13, align 8
  %39 = getelementptr inbounds nuw %struct.mms_actx_private_data_t, ptr %38, i32 0, i32 3
  %40 = load i32, ptr %39, align 4
  %41 = icmp eq i32 %40, 8
  br i1 %41, label %42, label %44

42:                                               ; preds = %37
  %43 = load i32, ptr @hf_mms_iec61850_confrev, align 4
  store i32 %43, ptr %12, align 4
  br label %44

44:                                               ; preds = %42, %37
  br label %45

45:                                               ; preds = %44, %35
  br label %46

46:                                               ; preds = %45, %25
  %47 = load ptr, ptr %13, align 8
  %48 = getelementptr inbounds nuw %struct.mms_actx_private_data_t, ptr %47, i32 0, i32 10
  %49 = load ptr, ptr %48, align 8
  %50 = getelementptr inbounds nuw %struct._mms_transaction_t, ptr %49, i32 0, i32 4
  %51 = load i32, ptr %50, align 4
  %52 = icmp eq i32 %51, 5
  br i1 %52, label %53, label %61

53:                                               ; preds = %46
  %54 = load ptr, ptr %13, align 8
  %55 = getelementptr inbounds nuw %struct.mms_actx_private_data_t, ptr %54, i32 0, i32 4
  %56 = load i32, ptr %55, align 8
  %57 = icmp eq i32 %56, 7
  br i1 %57, label %58, label %60

58:                                               ; preds = %53
  %59 = load i32, ptr @hf_mms_iec61850_ctlNum, align 4
  store i32 %59, ptr %12, align 4
  br label %60

60:                                               ; preds = %58, %53
  br label %61

61:                                               ; preds = %60, %46
  br label %62

62:                                               ; preds = %61, %20, %6
  %63 = load i8, ptr %7, align 1, !range !6, !noundef !7
  %64 = trunc i8 %63 to i1
  %65 = load ptr, ptr %10, align 8
  %66 = load ptr, ptr %11, align 8
  %67 = load ptr, ptr %8, align 8
  %68 = load i32, ptr %9, align 4
  %69 = load i32, ptr %12, align 4
  %70 = call i32 @dissect_ber_integer(i1 noundef zeroext %64, ptr noundef %65, ptr noundef %66, ptr noundef %67, i32 noundef %68, i32 noundef %69, ptr noundef null)
  store i32 %70, ptr %9, align 4
  %71 = load i32, ptr %9, align 4
  call void @llvm.lifetime.end.p0(i64 8, ptr %13) #8
  ret i32 %71
}