; Function Attrs: null_pointer_is_valid sspstrong uwtable
define internal i32 @dissect_mms_T_unsigned(i1 noundef zeroext %0, ptr noundef %1, i32 noundef %2, ptr noundef %3, ptr noundef %4, i32 noundef %5) #0 {
  %7 = getelementptr inbounds nuw i8, ptr %3, i64 48
  %8 = load ptr, ptr %7, align 8
  %.not = icmp eq ptr %8, null
  br i1 %.not, label %32, label %9

9:                                                ; preds = %6
  %10 = getelementptr inbounds nuw i8, ptr %8, i64 48
  %11 = load ptr, ptr %10, align 8
  %.not16 = icmp eq ptr %11, null
  br i1 %.not16, label %32, label %12

12:                                               ; preds = %9
  %13 = getelementptr inbounds nuw i8, ptr %8, i64 8
  %14 = load i32, ptr %13, align 8
  %15 = icmp eq i32 %14, 1
  br i1 %15, label %16, label %23

16:                                               ; preds = %12
  %17 = getelementptr inbounds nuw i8, ptr %8, i64 12
  %18 = load i32, ptr %17, align 4
  switch i32 %18, label %23 [
    i32 3, label %19
    i32 8, label %21
  ]

19:                                               ; preds = %16
  %20 = load i32, ptr @hf_mms_iec61850_seqnum, align 4
  br label %23

21:                                               ; preds = %16
  %22 = load i32, ptr @hf_mms_iec61850_confrev, align 4
  br label %23

23:                                               ; preds = %16, %19, %21, %12
  %.1 = phi i32 [ %20, %19 ], [ %22, %21 ], [ %5, %12 ], [ %5, %16 ]
  %24 = getelementptr inbounds nuw i8, ptr %11, i64 28
  %25 = load i32, ptr %24, align 4
  %26 = icmp eq i32 %25, 5
  br i1 %26, label %27, label %32

27:                                               ; preds = %23
  %28 = getelementptr inbounds nuw i8, ptr %8, i64 16
  %29 = load i32, ptr %28, align 8
  %30 = icmp eq i32 %29, 7
  %31 = load i32, ptr @hf_mms_iec61850_ctlNum, align 4
  %spec.select = select i1 %30, i32 %31, i32 %.1
  br label %32

32:                                               ; preds = %27, %23, %9, %6
  %.0 = phi i32 [ %.1, %23 ], [ %5, %9 ], [ %5, %6 ], [ %spec.select, %27 ]
  %33 = tail call i32 @dissect_ber_integer(i1 noundef zeroext %0, ptr noundef %3, ptr noundef %4, ptr noundef %1, i32 noundef %2, i32 noundef %.0, ptr noundef null)
  ret i32 %33
}